SF:/Users/r/git/wasmsign2/src/lib/src/error.rs
FN:155,_RNvNtNtCsaosaS6TPQTE_9wasmsign25error5testss_16test_error_debug
FN:73,_RNvNtNtCsaosaS6TPQTE_9wasmsign25error5testss_18test_error_display
FN:119,_RNvNtNtCsaosaS6TPQTE_9wasmsign25error5testss_22test_error_with_params
FN:140,_RNvNtNtCsaosaS6TPQTE_9wasmsign25error5testss_24test_error_from_io_error
FN:147,_RNvNtNtCsaosaS6TPQTE_9wasmsign25error5testss_26test_error_from_utf8_error
FNDA:1,_RNvNtNtCsaosaS6TPQTE_9wasmsign25error5testss_16test_error_debug
FNDA:1,_RNvNtNtCsaosaS6TPQTE_9wasmsign25error5testss_18test_error_display
FNDA:1,_RNvNtNtCsaosaS6TPQTE_9wasmsign25error5testss_22test_error_with_params
FNDA:1,_RNvNtNtCsaosaS6TPQTE_9wasmsign25error5testss_24test_error_from_io_error
FNDA:1,_RNvNtNtCsaosaS6TPQTE_9wasmsign25error5testss_26test_error_from_utf8_error
FNF:5
FNH:5
DA:73,1
DA:75,1
DA:76,1
DA:78,1
DA:79,1
DA:81,1
DA:82,1
DA:84,1
DA:85,1
DA:87,1
DA:88,1
DA:90,1
DA:91,1
DA:93,1
DA:94,1
DA:96,1
DA:97,1
DA:99,1
DA:100,1
DA:102,1
DA:103,1
DA:104,1
DA:108,1
DA:109,1
DA:111,1
DA:112,1
DA:114,1
DA:115,1
DA:116,1
DA:119,1
DA:120,1
DA:121,1
DA:123,1
DA:124,1
DA:126,1
DA:127,1
DA:129,1
DA:130,1
DA:132,1
DA:133,1
DA:134,1
DA:137,1
DA:140,1
DA:141,1
DA:142,1
DA:143,1
DA:144,1
DA:147,1
DA:148,1
DA:149,1
DA:150,1
DA:151,1
DA:152,1
DA:155,1
DA:157,1
DA:158,1
DA:159,1
DA:160,1
BRF:0
BRH:0
LF:58
LH:58
end_of_record
SF:/Users/r/git/wasmsign2/src/lib/src/signature/hash.rs
FN:15,_RINvMNtNtCsaosaS6TPQTE_9wasmsign29signature4hashNtB3_4Hash6updatepEB7_
FN:9,_RNvMNtNtCsaosaS6TPQTE_9wasmsign29signature4hashNtB2_4Hash3new
FN:19,_RNvMNtNtCsaosaS6TPQTE_9wasmsign29signature4hashNtB2_4Hash8finalize
FN:30,_RNvXs_NtNtCsaosaS6TPQTE_9wasmsign29signature4hashNtB4_4HashNtNtCs4N3M0UGf3SB_3std2io5Write5flush
FN:25,_RNvXs_NtNtCsaosaS6TPQTE_9wasmsign29signature4hashNtB4_4HashNtNtCs4N3M0UGf3SB_3std2io5Write5write
FNDA:0,_RINvMNtNtCsaosaS6TPQTE_9wasmsign29signature4hashNtB3_4Hash6updatepEB7_
FNDA:0,_RNvMNtNtCsaosaS6TPQTE_9wasmsign29signature4hashNtB2_4Hash3new
FNDA:0,_RNvMNtNtCsaosaS6TPQTE_9wasmsign29signature4hashNtB2_4Hash8finalize
FNDA:0,_RNvXs_NtNtCsaosaS6TPQTE_9wasmsign29signature4hashNtB4_4HashNtNtCs4N3M0UGf3SB_3std2io5Write5flush
FNDA:0,_RNvXs_NtNtCsaosaS6TPQTE_9wasmsign29signature4hashNtB4_4HashNtNtCs4N3M0UGf3SB_3std2io5Write5write
FNF:5
FNH:0
DA:9,0
DA:10,0
DA:11,0
DA:12,0
DA:13,0
DA:15,0
DA:16,0
DA:17,0
DA:19,0
DA:20,0
DA:21,0
DA:25,0
DA:26,0
DA:27,0
DA:28,0
DA:30,0
DA:31,0
DA:32,0
BRF:0
BRH:0
LF:18
LH:0
end_of_record
SF:/Users/r/git/wasmsign2/src/lib/src/signature/keys.rs
FN:124,_RINvMNtNtCsaosaS6TPQTE_9wasmsign29signature4keysNtB3_9PublicKey13from_any_filepEB7_
FN:98,_RINvMNtNtCsaosaS6TPQTE_9wasmsign29signature4keysNtB3_9PublicKey17from_openssh_filepEB7_
FN:76,_RINvMNtNtCsaosaS6TPQTE_9wasmsign29signature4keysNtB3_9PublicKey7to_filepEB7_
FN:68,_RINvMNtNtCsaosaS6TPQTE_9wasmsign29signature4keysNtB3_9PublicKey9from_filepEB7_
FN:236,_RINvMs0_NtNtCsaosaS6TPQTE_9wasmsign29signature4keysNtB6_9SecretKey17from_openssh_filepEBa_
FN:217,_RINvMs0_NtNtCsaosaS6TPQTE_9wasmsign29signature4keysNtB6_9SecretKey7to_filepEBa_
FN:209,_RINvMs0_NtNtCsaosaS6TPQTE_9wasmsign29signature4keysNtB6_9SecretKey9from_filepEBa_
FN:351,_RINvMs3_NtNtCsaosaS6TPQTE_9wasmsign29signature4keysNtB6_12PublicKeySet15insert_any_filepEBa_
FN:313,_RINvMs3_NtNtCsaosaS6TPQTE_9wasmsign29signature4keysNtB6_12PublicKeySet17from_openssh_filepEBa_
FN:389,_RNCNvMs3_NtNtCsaosaS6TPQTE_9wasmsign29signature4keysNtB7_12PublicKeySet21attach_default_key_id0Bb_
FN:152,_RNCNvXs_NtNtCsaosaS6TPQTE_9wasmsign29signature4keysNtB6_9PublicKeyNtNtCs2CqrNpCrSUr_4core3fmt5Debug3fmt0Ba_
FN:23,_RNvMNtNtCsaosaS6TPQTE_9wasmsign29signature4keysNtB2_9PublicKey10from_bytes
FN:83,_RNvMNtNtCsaosaS6TPQTE_9wasmsign29signature4keysNtB2_9PublicKey12from_openssh
FN:137,_RNvMNtNtCsaosaS6TPQTE_9wasmsign29signature4keysNtB2_9PublicKey21attach_default_key_id
FN:132,_RNvMNtNtCsaosaS6TPQTE_9wasmsign29signature4keysNtB2_9PublicKey6key_id
FN:63,_RNvMNtNtCsaosaS6TPQTE_9wasmsign29signature4keysNtB2_9PublicKey6to_der
FN:58,_RNvMNtNtCsaosaS6TPQTE_9wasmsign29signature4keysNtB2_9PublicKey6to_pem
FN:106,_RNvMNtNtCsaosaS6TPQTE_9wasmsign29signature4keysNtB2_9PublicKey8from_any
FN:45,_RNvMNtNtCsaosaS6TPQTE_9wasmsign29signature4keysNtB2_9PublicKey8from_der
FN:39,_RNvMNtNtCsaosaS6TPQTE_9wasmsign29signature4keysNtB2_9PublicKey8from_pem
FN:51,_RNvMNtNtCsaosaS6TPQTE_9wasmsign29signature4keysNtB2_9PublicKey8to_bytes
FN:165,_RNvMs0_NtNtCsaosaS6TPQTE_9wasmsign29signature4keysNtB5_9SecretKey10from_bytes
FN:224,_RNvMs0_NtNtCsaosaS6TPQTE_9wasmsign29signature4keysNtB5_9SecretKey12from_openssh
FN:204,_RNvMs0_NtNtCsaosaS6TPQTE_9wasmsign29signature4keysNtB5_9SecretKey6to_der
FN:199,_RNvMs0_NtNtCsaosaS6TPQTE_9wasmsign29signature4keysNtB5_9SecretKey6to_pem
FN:186,_RNvMs0_NtNtCsaosaS6TPQTE_9wasmsign29signature4keysNtB5_9SecretKey8from_der
FN:180,_RNvMs0_NtNtCsaosaS6TPQTE_9wasmsign29signature4keysNtB5_9SecretKey8from_pem
FN:192,_RNvMs0_NtNtCsaosaS6TPQTE_9wasmsign29signature4keysNtB5_9SecretKey8to_bytes
FN:265,_RNvMs2_NtNtCsaosaS6TPQTE_9wasmsign29signature4keysNtB5_7KeyPair8generate
FN:339,_RNvMs3_NtNtCsaosaS6TPQTE_9wasmsign29signature4keysNtB5_12PublicKeySet10insert_any
FN:297,_RNvMs3_NtNtCsaosaS6TPQTE_9wasmsign29signature4keysNtB5_12PublicKeySet12from_openssh
FN:385,_RNvMs3_NtNtCsaosaS6TPQTE_9wasmsign29signature4keysNtB5_12PublicKeySet21attach_default_key_id
FN:321,_RNvMs3_NtNtCsaosaS6TPQTE_9wasmsign29signature4keysNtB5_12PublicKeySet3len
FN:292,_RNvMs3_NtNtCsaosaS6TPQTE_9wasmsign29signature4keysNtB5_12PublicKeySet3new
FN:285,_RNvMs3_NtNtCsaosaS6TPQTE_9wasmsign29signature4keysNtB5_12PublicKeySet5empty
FN:375,_RNvMs3_NtNtCsaosaS6TPQTE_9wasmsign29signature4keysNtB5_12PublicKeySet5items
FN:359,_RNvMs3_NtNtCsaosaS6TPQTE_9wasmsign29signature4keysNtB5_12PublicKeySet5merge
FN:331,_RNvMs3_NtNtCsaosaS6TPQTE_9wasmsign29signature4keysNtB5_12PublicKeySet6insert
FN:367,_RNvMs3_NtNtCsaosaS6TPQTE_9wasmsign29signature4keysNtB5_12PublicKeySet6remove
FN:326,_RNvMs3_NtNtCsaosaS6TPQTE_9wasmsign29signature4keysNtB5_12PublicKeySet8is_empty
FN:380,_RNvMs3_NtNtCsaosaS6TPQTE_9wasmsign29signature4keysNtB5_12PublicKeySet9items_mut
FN:245,_RNvXs1_NtNtCsaosaS6TPQTE_9wasmsign29signature4keysNtB5_9SecretKeyNtNtCs2CqrNpCrSUr_4core3fmt5Debug3fmt
FN:146,_RNvXs_NtNtCsaosaS6TPQTE_9wasmsign29signature4keysNtB4_9PublicKeyNtNtCs2CqrNpCrSUr_4core3fmt5Debug3fmt
FNDA:0,_RINvMNtNtCsaosaS6TPQTE_9wasmsign29signature4keysNtB3_9PublicKey13from_any_filepEB7_
FNDA:0,_RINvMNtNtCsaosaS6TPQTE_9wasmsign29signature4keysNtB3_9PublicKey17from_openssh_filepEB7_
FNDA:0,_RINvMNtNtCsaosaS6TPQTE_9wasmsign29signature4keysNtB3_9PublicKey7to_filepEB7_
FNDA:0,_RINvMNtNtCsaosaS6TPQTE_9wasmsign29signature4keysNtB3_9PublicKey9from_filepEB7_
FNDA:0,_RINvMs0_NtNtCsaosaS6TPQTE_9wasmsign29signature4keysNtB6_9SecretKey17from_openssh_filepEBa_
FNDA:0,_RINvMs0_NtNtCsaosaS6TPQTE_9wasmsign29signature4keysNtB6_9SecretKey7to_filepEBa_
FNDA:0,_RINvMs0_NtNtCsaosaS6TPQTE_9wasmsign29signature4keysNtB6_9SecretKey9from_filepEBa_
FNDA:0,_RINvMs3_NtNtCsaosaS6TPQTE_9wasmsign29signature4keysNtB6_12PublicKeySet15insert_any_filepEBa_
FNDA:0,_RINvMs3_NtNtCsaosaS6TPQTE_9wasmsign29signature4keysNtB6_12PublicKeySet17from_openssh_filepEBa_
FNDA:0,_RNCNvMs3_NtNtCsaosaS6TPQTE_9wasmsign29signature4keysNtB7_12PublicKeySet21attach_default_key_id0Bb_
FNDA:0,_RNCNvXs_NtNtCsaosaS6TPQTE_9wasmsign29signature4keysNtB6_9PublicKeyNtNtCs2CqrNpCrSUr_4core3fmt5Debug3fmt0Ba_
FNDA:0,_RNvMNtNtCsaosaS6TPQTE_9wasmsign29signature4keysNtB2_9PublicKey10from_bytes
FNDA:0,_RNvMNtNtCsaosaS6TPQTE_9wasmsign29signature4keysNtB2_9PublicKey12from_openssh
FNDA:0,_RNvMNtNtCsaosaS6TPQTE_9wasmsign29signature4keysNtB2_9PublicKey21attach_default_key_id
FNDA:0,_RNvMNtNtCsaosaS6TPQTE_9wasmsign29signature4keysNtB2_9PublicKey6key_id
FNDA:0,_RNvMNtNtCsaosaS6TPQTE_9wasmsign29signature4keysNtB2_9PublicKey6to_der
FNDA:0,_RNvMNtNtCsaosaS6TPQTE_9wasmsign29signature4keysNtB2_9PublicKey6to_pem
FNDA:0,_RNvMNtNtCsaosaS6TPQTE_9wasmsign29signature4keysNtB2_9PublicKey8from_any
FNDA:0,_RNvMNtNtCsaosaS6TPQTE_9wasmsign29signature4keysNtB2_9PublicKey8from_der
FNDA:0,_RNvMNtNtCsaosaS6TPQTE_9wasmsign29signature4keysNtB2_9PublicKey8from_pem
FNDA:0,_RNvMNtNtCsaosaS6TPQTE_9wasmsign29signature4keysNtB2_9PublicKey8to_bytes
FNDA:0,_RNvMs0_NtNtCsaosaS6TPQTE_9wasmsign29signature4keysNtB5_9SecretKey10from_bytes
FNDA:0,_RNvMs0_NtNtCsaosaS6TPQTE_9wasmsign29signature4keysNtB5_9SecretKey12from_openssh
FNDA:0,_RNvMs0_NtNtCsaosaS6TPQTE_9wasmsign29signature4keysNtB5_9SecretKey6to_der
FNDA:0,_RNvMs0_NtNtCsaosaS6TPQTE_9wasmsign29signature4keysNtB5_9SecretKey6to_pem
FNDA:0,_RNvMs0_NtNtCsaosaS6TPQTE_9wasmsign29signature4keysNtB5_9SecretKey8from_der
FNDA:0,_RNvMs0_NtNtCsaosaS6TPQTE_9wasmsign29signature4keysNtB5_9SecretKey8from_pem
FNDA:0,_RNvMs0_NtNtCsaosaS6TPQTE_9wasmsign29signature4keysNtB5_9SecretKey8to_bytes
FNDA:0,_RNvMs2_NtNtCsaosaS6TPQTE_9wasmsign29signature4keysNtB5_7KeyPair8generate
FNDA:0,_RNvMs3_NtNtCsaosaS6TPQTE_9wasmsign29signature4keysNtB5_12PublicKeySet10insert_any
FNDA:0,_RNvMs3_NtNtCsaosaS6TPQTE_9wasmsign29signature4keysNtB5_12PublicKeySet12from_openssh
FNDA:0,_RNvMs3_NtNtCsaosaS6TPQTE_9wasmsign29signature4keysNtB5_12PublicKeySet21attach_default_key_id
FNDA:0,_RNvMs3_NtNtCsaosaS6TPQTE_9wasmsign29signature4keysNtB5_12PublicKeySet3len
FNDA:0,_RNvMs3_NtNtCsaosaS6TPQTE_9wasmsign29signature4keysNtB5_12PublicKeySet3new
FNDA:0,_RNvMs3_NtNtCsaosaS6TPQTE_9wasmsign29signature4keysNtB5_12PublicKeySet5empty
FNDA:0,_RNvMs3_NtNtCsaosaS6TPQTE_9wasmsign29signature4keysNtB5_12PublicKeySet5items
FNDA:0,_RNvMs3_NtNtCsaosaS6TPQTE_9wasmsign29signature4keysNtB5_12PublicKeySet5merge
FNDA:0,_RNvMs3_NtNtCsaosaS6TPQTE_9wasmsign29signature4keysNtB5_12PublicKeySet6insert
FNDA:0,_RNvMs3_NtNtCsaosaS6TPQTE_9wasmsign29signature4keysNtB5_12PublicKeySet6remove
FNDA:0,_RNvMs3_NtNtCsaosaS6TPQTE_9wasmsign29signature4keysNtB5_12PublicKeySet8is_empty
FNDA:0,_RNvMs3_NtNtCsaosaS6TPQTE_9wasmsign29signature4keysNtB5_12PublicKeySet9items_mut
FNDA:0,_RNvXs1_NtNtCsaosaS6TPQTE_9wasmsign29signature4keysNtB5_9SecretKeyNtNtCs2CqrNpCrSUr_4core3fmt5Debug3fmt
FNDA:0,_RNvXs_NtNtCsaosaS6TPQTE_9wasmsign29signature4keysNtB4_9PublicKeyNtNtCs2CqrNpCrSUr_4core3fmt5Debug3fmt
FNF:43
FNH:0
DA:23,0
DA:24,0
DA:25,0
DA:26,0
DA:27,0
DA:28,0
DA:29,0
DA:30,0
DA:31,0
DA:33,0
DA:34,0
DA:36,0
DA:39,0
DA:40,0
DA:41,0
DA:42,0
DA:45,0
DA:46,0
DA:47,0
DA:48,0
DA:51,0
DA:52,0
DA:53,0
DA:54,0
DA:55,0
DA:58,0
DA:59,0
DA:60,0
DA:63,0
DA:64,0
DA:65,0
DA:68,0
DA:69,0
DA:70,0
DA:71,0
DA:72,0
DA:73,0
DA:76,0
DA:77,0
DA:78,0
DA:79,0
DA:80,0
DA:83,0
DA:84,0
DA:85,0
DA:86,0
DA:87,0
DA:88,0
DA:89,0
DA:90,0
DA:91,0
DA:92,0
DA:94,0
DA:95,0
DA:98,0
DA:99,0
DA:100,0
DA:101,0
DA:102,0
DA:103,0
DA:106,0
DA:107,0
DA:108,0
DA:109,0
DA:110,0
DA:111,0
DA:112,0
DA:113,0
DA:114,0
DA:115,0
DA:116,0
DA:117,0
DA:118,0
DA:119,0
DA:120,0
DA:121,0
DA:124,0
DA:125,0
DA:126,0
DA:127,0
DA:128,0
DA:129,0
DA:132,0
DA:133,0
DA:134,0
DA:137,0
DA:138,0
DA:139,0
DA:140,0
DA:141,0
DA:142,0
DA:146,0
DA:147,0
DA:148,0
DA:149,0
DA:150,0
DA:151,0
DA:152,0
DA:154,0
DA:165,0
DA:166,0
DA:167,0
DA:168,0
DA:169,0
DA:170,0
DA:171,0
DA:172,0
DA:173,0
DA:175,0
DA:177,0
DA:180,0
DA:181,0
DA:182,0
DA:183,0
DA:186,0
DA:187,0
DA:188,0
DA:189,0
DA:192,0
DA:193,0
DA:194,0
DA:195,0
DA:196,0
DA:199,0
DA:200,0
DA:201,0
DA:204,0
DA:205,0
DA:206,0
DA:209,0
DA:210,0
DA:211,0
DA:212,0
DA:213,0
DA:214,0
DA:217,0
DA:218,0
DA:219,0
DA:220,0
DA:221,0
DA:224,0
DA:225,0
DA:226,0
DA:227,0
DA:228,0
DA:229,0
DA:230,0
DA:232,0
DA:233,0
DA:236,0
DA:237,0
DA:238,0
DA:239,0
DA:240,0
DA:241,0
DA:245,0
DA:246,0
DA:247,0
DA:248,0
DA:249,0
DA:251,0
DA:265,0
DA:266,0
DA:267,0
DA:268,0
DA:269,0
DA:270,0
DA:271,0
DA:272,0
DA:273,0
DA:274,0
DA:285,0
DA:286,0
DA:287,0
DA:288,0
DA:289,0
DA:292,0
DA:293,0
DA:294,0
DA:297,0
DA:298,0
DA:299,0
DA:300,0
DA:301,0
DA:302,0
DA:303,0
DA:304,0
DA:305,0
DA:306,0
DA:307,0
DA:309,0
DA:310,0
DA:313,0
DA:314,0
DA:315,0
DA:316,0
DA:317,0
DA:318,0
DA:321,0
DA:322,0
DA:323,0
DA:326,0
DA:327,0
DA:328,0
DA:331,0
DA:332,0
DA:333,0
DA:334,0
DA:335,0
DA:336,0
DA:339,0
DA:340,0
DA:341,0
DA:343,0
DA:344,0
DA:345,0
DA:346,0
DA:347,0
DA:348,0
DA:351,0
DA:352,0
DA:353,0
DA:354,0
DA:355,0
DA:356,0
DA:359,0
DA:360,0
DA:361,0
DA:363,0
DA:364,0
DA:367,0
DA:368,0
DA:369,0
DA:370,0
DA:371,0
DA:372,0
DA:375,0
DA:376,0
DA:377,0
DA:380,0
DA:381,0
DA:382,0
DA:385,0
DA:386,0
DA:387,0
DA:388,0
DA:389,0
DA:390,0
DA:391,0
DA:392,0
BRF:0
BRH:0
LF:252
LH:0
end_of_record
SF:/Users/r/git/wasmsign2/src/lib/src/signature/matrix.rs
FN:23,_RINvMNtNtCsaosaS6TPQTE_9wasmsign29signature6matrixNtNtB5_4keys12PublicKeySet13verify_matrixppEB7_
FNDA:0,_RINvMNtNtCsaosaS6TPQTE_9wasmsign29signature6matrixNtNtB5_4keys12PublicKeySet13verify_matrixppEB7_
FNF:1
FNH:0
DA:23,0
DA:24,0
DA:25,0
DA:26,0
DA:27,0
DA:28,0
DA:29,0
DA:30,0
DA:31,0
DA:32,0
DA:33,0
DA:34,0
DA:36,0
DA:38,0
DA:39,0
DA:40,0
DA:43,0
DA:44,0
DA:48,0
DA:49,0
DA:50,0
DA:51,0
DA:54,0
DA:55,0
DA:56,0
DA:57,0
DA:58,0
DA:61,0
DA:62,0
DA:64,0
DA:65,0
DA:66,0
DA:67,0
DA:68,0
DA:69,0
DA:70,0
DA:72,0
DA:73,0
DA:74,0
DA:75,0
DA:77,0
DA:78,0
DA:79,0
DA:80,0
DA:81,0
DA:83,0
DA:84,0
DA:85,0
DA:86,0
DA:88,0
DA:89,0
DA:90,0
DA:91,0
DA:92,0
DA:93,0
DA:94,0
DA:95,0
DA:97,0
DA:98,0
DA:99,0
DA:100,0
DA:101,0
DA:102,0
DA:103,0
DA:105,0
DA:106,0
DA:107,0
DA:108,0
DA:111,0
DA:112,0
DA:113,0
DA:114,0
DA:116,0
DA:117,0
DA:118,0
DA:119,0
DA:120,0
DA:121,0
DA:122,0
DA:123,0
DA:124,0
DA:131,0
DA:132,0
DA:133,0
DA:134,0
DA:135,0
DA:136,0
DA:137,0
DA:138,0
DA:139,0
DA:140,0
DA:142,0
DA:145,0
DA:146,0
DA:147,0
DA:148,0
DA:149,0
DA:150,0
BRF:0
BRH:0
LF:98
LH:0
end_of_record
SF:/Users/r/git/wasmsign2/src/lib/src/signature/multi.rs
FN:175,_RINvMs_NtNtCsaosaS6TPQTE_9wasmsign29signature5multiNtNtB7_4keys9PublicKey12verify_multippEB9_
FN:132,_RNCNvMNtNtCsaosaS6TPQTE_9wasmsign29signature5multiNtNtB6_4keys9SecretKey20build_header_section0B8_
FN:20,_RNvMNtNtCsaosaS6TPQTE_9wasmsign29signature5multiNtNtB4_4keys9SecretKey10sign_multi
FN:79,_RNvMNtNtCsaosaS6TPQTE_9wasmsign29signature5multiNtNtB4_4keys9SecretKey20build_header_section
FN:262,_RNvMs_NtNtCsaosaS6TPQTE_9wasmsign29signature5multiNtNtB6_4keys9PublicKey19valid_hashes_for_pk
FNDA:0,_RINvMs_NtNtCsaosaS6TPQTE_9wasmsign29signature5multiNtNtB7_4keys9PublicKey12verify_multippEB9_
FNDA:0,_RNCNvMNtNtCsaosaS6TPQTE_9wasmsign29signature5multiNtNtB6_4keys9SecretKey20build_header_section0B8_
FNDA:0,_RNvMNtNtCsaosaS6TPQTE_9wasmsign29signature5multiNtNtB4_4keys9SecretKey10sign_multi
FNDA:0,_RNvMNtNtCsaosaS6TPQTE_9wasmsign29signature5multiNtNtB4_4keys9SecretKey20build_header_section
FNDA:0,_RNvMs_NtNtCsaosaS6TPQTE_9wasmsign29signature5multiNtNtB6_4keys9PublicKey19valid_hashes_for_pk
FNF:5
FNH:0
DA:20,0
DA:21,0
DA:22,0
DA:23,0
DA:24,0
DA:25,0
DA:26,0
DA:27,0
DA:28,0
DA:30,0
DA:31,0
DA:32,0
DA:33,0
DA:34,0
DA:35,0
DA:36,0
DA:37,0
DA:38,0
DA:39,0
DA:40,0
DA:41,0
DA:42,0
DA:43,0
DA:44,0
DA:45,0
DA:46,0
DA:47,0
DA:48,0
DA:49,0
DA:50,0
DA:51,0
DA:52,0
DA:53,0
DA:54,0
DA:55,0
DA:56,0
DA:57,0
DA:58,0
DA:59,0
DA:60,0
DA:61,0
DA:62,0
DA:64,0
DA:65,0
DA:66,0
DA:67,0
DA:68,0
DA:69,0
DA:70,0
DA:72,0
DA:73,0
DA:74,0
DA:75,0
DA:77,0
DA:79,0
DA:80,0
DA:81,0
DA:82,0
DA:83,0
DA:84,0
DA:85,0
DA:86,0
DA:87,0
DA:88,0
DA:89,0
DA:90,0
DA:91,0
DA:92,0
DA:93,0
DA:94,0
DA:96,0
DA:98,0
DA:99,0
DA:104,0
DA:107,0
DA:109,0
DA:111,0
DA:112,0
DA:113,0
DA:114,0
DA:115,0
DA:116,0
DA:117,0
DA:118,0
DA:119,0
DA:120,0
DA:121,0
DA:122,0
DA:124,0
DA:126,0
DA:129,0
DA:130,0
DA:131,0
DA:132,0
DA:133,0
DA:134,0
DA:135,0
DA:136,0
DA:137,0
DA:138,0
DA:139,0
DA:140,0
DA:141,0
DA:142,0
DA:143,0
DA:144,0
DA:145,0
DA:147,0
DA:148,0
DA:149,0
DA:150,0
DA:151,0
DA:152,0
DA:153,0
DA:154,0
DA:155,0
DA:156,0
DA:157,0
DA:158,0
DA:159,0
DA:160,0
DA:161,0
DA:163,0
DA:164,0
DA:175,0
DA:176,0
DA:177,0
DA:178,0
DA:179,0
DA:180,0
DA:181,0
DA:182,0
DA:184,0
DA:185,0
DA:186,0
DA:187,0
DA:188,0
DA:189,0
DA:191,0
DA:193,0
DA:194,0
DA:195,0
DA:198,0
DA:199,0
DA:203,0
DA:204,0
DA:205,0
DA:206,0
DA:209,0
DA:210,0
DA:212,0
DA:213,0
DA:214,0
DA:215,0
DA:216,0
DA:217,0
DA:218,0
DA:219,0
DA:220,0
DA:222,0
DA:223,0
DA:224,0
DA:225,0
DA:226,0
DA:227,0
DA:228,0
DA:229,0
DA:230,0
DA:231,0
DA:232,0
DA:233,0
DA:234,0
DA:235,0
DA:236,0
DA:237,0
DA:238,0
DA:239,0
DA:240,0
DA:242,0
DA:243,0
DA:244,0
DA:245,0
DA:246,0
DA:248,0
DA:249,0
DA:251,0
DA:255,0
DA:256,0
DA:257,0
DA:259,0
DA:260,0
DA:262,0
DA:263,0
DA:264,0
DA:265,0
DA:266,0
DA:267,0
DA:268,0
DA:269,0
DA:270,0
DA:271,0
DA:272,0
DA:273,0
DA:274,0
DA:275,0
DA:276,0
DA:277,0
DA:278,0
DA:279,0
DA:280,0
DA:281,0
DA:282,0
DA:284,0
DA:286,0
DA:287,0
DA:288,0
DA:289,0
DA:290,0
DA:292,0
DA:294,0
DA:295,0
DA:296,0
DA:297,0
DA:298,0
DA:300,0
DA:301,0
DA:302,0
DA:305,0
DA:306,0
BRF:0
BRH:0
LF:230
LH:0
end_of_record
SF:/Users/r/git/wasmsign2/src/lib/src/signature/sig_sections.rs
FN:50,_RINvMNtNtCsaosaS6TPQTE_9wasmsign29signature12sig_sectionsNtB3_18SignatureForHashes11deserializeINtNtCs1AhsD0INetT_5alloc3vec3VechEEB7_
FN:133,_RINvMs0_NtNtCsaosaS6TPQTE_9wasmsign29signature12sig_sectionsNtB6_13SignatureData11deserializeRShEBa_
FN:88,_RINvMs_NtNtCsaosaS6TPQTE_9wasmsign29signature12sig_sectionsNtB5_12SignedHashes11deserializeINtNtCs1AhsD0INetT_5alloc3vec3VechEEB9_
FN:175,_RNCNvNtNtCsaosaS6TPQTE_9wasmsign29signature12sig_sections21new_delimiter_section0B7_
FN:38,_RNvMNtNtCsaosaS6TPQTE_9wasmsign29signature12sig_sectionsNtB2_18SignatureForHashes9serialize
FN:121,_RNvMs0_NtNtCsaosaS6TPQTE_9wasmsign29signature12sig_sectionsNtB5_13SignatureData9serialize
FN:75,_RNvMs_NtNtCsaosaS6TPQTE_9wasmsign29signature12sig_sectionsNtB4_12SignedHashes9serialize
FN:172,_RNvNtNtCsaosaS6TPQTE_9wasmsign29signature12sig_sections21new_delimiter_section
FNDA:0,_RINvMNtNtCsaosaS6TPQTE_9wasmsign29signature12sig_sectionsNtB3_18SignatureForHashes11deserializeINtNtCs1AhsD0INetT_5alloc3vec3VechEEB7_
FNDA:0,_RINvMs0_NtNtCsaosaS6TPQTE_9wasmsign29signature12sig_sectionsNtB6_13SignatureData11deserializeRShEBa_
FNDA:0,_RINvMs_NtNtCsaosaS6TPQTE_9wasmsign29signature12sig_sectionsNtB5_12SignedHashes11deserializeINtNtCs1AhsD0INetT_5alloc3vec3VechEEB9_
FNDA:0,_RNCNvNtNtCsaosaS6TPQTE_9wasmsign29signature12sig_sections21new_delimiter_section0B7_
FNDA:0,_RNvMNtNtCsaosaS6TPQTE_9wasmsign29signature12sig_sectionsNtB2_18SignatureForHashes9serialize
FNDA:0,_RNvMs0_NtNtCsaosaS6TPQTE_9wasmsign29signature12sig_sectionsNtB5_13SignatureData9serialize
FNDA:0,_RNvMs_NtNtCsaosaS6TPQTE_9wasmsign29signature12sig_sectionsNtB4_12SignedHashes9serialize
FNDA:5,_RNvNtNtCsaosaS6TPQTE_9wasmsign29signature12sig_sections21new_delimiter_section
FNF:8
FNH:1
DA:38,0
DA:39,0
DA:40,0
DA:41,0
DA:43,0
DA:45,0
DA:46,0
DA:47,0
DA:48,0
DA:50,0
DA:51,0
DA:52,0
DA:53,0
DA:54,0
DA:56,0
DA:58,0
DA:59,0
DA:60,0
DA:61,0
DA:62,0
DA:63,0
DA:64,0
DA:65,0
DA:66,0
DA:67,0
DA:68,0
DA:69,0
DA:70,0
DA:71,0
DA:75,0
DA:76,0
DA:77,0
DA:78,0
DA:79,0
DA:81,0
DA:82,0
DA:83,0
DA:85,0
DA:86,0
DA:88,0
DA:89,0
DA:90,0
DA:91,0
DA:92,0
DA:93,0
DA:94,0
DA:95,0
DA:96,0
DA:97,0
DA:98,0
DA:99,0
DA:101,0
DA:102,0
DA:103,0
DA:104,0
DA:107,0
DA:108,0
DA:109,0
DA:110,0
DA:111,0
DA:112,0
DA:113,0
DA:114,0
DA:116,0
DA:117,0
DA:121,0
DA:122,0
DA:123,0
DA:124,0
DA:125,0
DA:126,0
DA:127,0
DA:128,0
DA:130,0
DA:131,0
DA:133,0
DA:134,0
DA:135,0
DA:136,0
DA:137,0
DA:138,0
DA:141,0
DA:142,0
DA:143,0
DA:144,0
DA:145,0
DA:146,0
DA:147,0
DA:148,0
DA:149,0
DA:150,0
DA:151,0
DA:152,0
DA:155,0
DA:156,0
DA:157,0
DA:158,0
DA:159,0
DA:160,0
DA:161,0
DA:163,0
DA:164,0
DA:165,0
DA:166,0
DA:167,0
DA:168,0
DA:169,0
DA:172,5
DA:173,5
DA:174,5
DA:175,5
DA:176,5
DA:177,5
DA:178,5
DA:179,5
DA:180,5
BRF:0
BRH:0
LF:117
LH:9
end_of_record
SF:/Users/r/git/wasmsign2/src/lib/src/signature/simple.rs
FN:145,_RINvMs0_NtNtCsaosaS6TPQTE_9wasmsign29signature6simpleNtNtB8_4keys12PublicKeySet6verifypEBa_
FN:72,_RINvMs_NtNtCsaosaS6TPQTE_9wasmsign29signature6simpleNtNtB7_4keys9PublicKey6verifypEB9_
FN:196,_RNCINvMs0_NtNtCsaosaS6TPQTE_9wasmsign29signature6simpleNtNtBa_4keys12PublicKeySet6verifypE0Bc_
FN:16,_RNvMNtNtCsaosaS6TPQTE_9wasmsign29signature6simpleNtNtB4_4keys9SecretKey4sign
FNDA:0,_RINvMs0_NtNtCsaosaS6TPQTE_9wasmsign29signature6simpleNtNtB8_4keys12PublicKeySet6verifypEBa_
FNDA:0,_RINvMs_NtNtCsaosaS6TPQTE_9wasmsign29signature6simpleNtNtB7_4keys9PublicKey6verifypEB9_
FNDA:0,_RNCINvMs0_NtNtCsaosaS6TPQTE_9wasmsign29signature6simpleNtNtBa_4keys12PublicKeySet6verifypE0Bc_
FNDA:0,_RNvMNtNtCsaosaS6TPQTE_9wasmsign29signature6simpleNtNtB4_4keys9SecretKey4sign
FNF:4
FNH:0
DA:16,0
DA:17,0
DA:18,0
DA:19,0
DA:20,0
DA:21,0
DA:22,0
DA:23,0
DA:24,0
DA:26,0
DA:28,0
DA:29,0
DA:30,0
DA:31,0
DA:32,0
DA:33,0
DA:34,0
DA:35,0
DA:37,0
DA:39,0
DA:40,0
DA:41,0
DA:42,0
DA:43,0
DA:44,0
DA:45,0
DA:46,0
DA:47,0
DA:48,0
DA:49,0
DA:50,0
DA:51,0
DA:52,0
DA:53,0
DA:54,0
DA:55,0
DA:56,0
DA:59,0
DA:60,0
DA:61,0
DA:72,0
DA:73,0
DA:74,0
DA:75,0
DA:76,0
DA:77,0
DA:78,0
DA:81,0
DA:82,0
DA:83,0
DA:84,0
DA:85,0
DA:87,0
DA:89,0
DA:90,0
DA:91,0
DA:94,0
DA:95,0
DA:100,0
DA:101,0
DA:102,0
DA:103,0
DA:106,0
DA:107,0
DA:109,0
DA:110,0
DA:111,0
DA:112,0
DA:113,0
DA:114,0
DA:116,0
DA:117,0
DA:119,0
DA:120,0
DA:121,0
DA:122,0
DA:123,0
DA:126,0
DA:128,0
DA:129,0
DA:131,0
DA:133,0
DA:145,0
DA:146,0
DA:147,0
DA:148,0
DA:149,0
DA:150,0
DA:156,0
DA:157,0
DA:158,0
DA:159,0
DA:160,0
DA:161,0
DA:162,0
DA:163,0
DA:164,0
DA:166,0
DA:167,0
DA:168,0
DA:171,0
DA:172,0
DA:177,0
DA:178,0
DA:179,0
DA:180,0
DA:183,0
DA:184,0
DA:185,0
DA:186,0
DA:187,0
DA:190,0
DA:191,0
DA:192,0
DA:193,0
DA:194,0
DA:195,0
DA:196,0
DA:197,0
DA:198,0
DA:199,0
DA:200,0
DA:201,0
DA:202,0
DA:203,0
DA:204,0
DA:206,0
DA:207,0
DA:209,0
DA:210,0
DA:211,0
DA:212,0
DA:213,0
DA:216,0
DA:217,0
DA:218,0
DA:219,0
DA:220,0
DA:221,0
DA:223,0
DA:224,0
DA:225,0
DA:226,0
DA:227,0
DA:228,0
BRF:0
BRH:0
LF:146
LH:0
end_of_record
SF:/Users/r/git/wasmsign2/src/lib/src/split.rs
FN:92,_RNvMNtCsaosaS6TPQTE_9wasmsign25splitNtNtB4_11wasm_module6Module16attach_signature
FN:70,_RNvMNtCsaosaS6TPQTE_9wasmsign25splitNtNtB4_11wasm_module6Module16detach_signature
FN:10,_RNvMNtCsaosaS6TPQTE_9wasmsign25splitNtNtB4_11wasm_module6Module4show
FN:253,_RNCNvNtNtCsaosaS6TPQTE_9wasmsign25split5testss_20test_split_selective0B7_
FN:261,_RNCNvNtNtCsaosaS6TPQTE_9wasmsign25split5testss_20test_split_selectives_0B7_
FN:116,_RNvNtNtCsaosaS6TPQTE_9wasmsign25split5tests18create_test_module
FN:274,_RNvNtNtCsaosaS6TPQTE_9wasmsign25split5testss_17test_show_verbose
FN:249,_RNvNtNtCsaosaS6TPQTE_9wasmsign25split5testss_20test_split_selective
FN:159,_RNvNtNtCsaosaS6TPQTE_9wasmsign25split5testss_21test_attach_signature
FN:266,_RNvNtNtCsaosaS6TPQTE_9wasmsign25split5testss_21test_show_non_verbose
FN:215,_RNvNtNtCsaosaS6TPQTE_9wasmsign25split5testss_22test_split_no_sections
FN:197,_RNvNtNtCsaosaS6TPQTE_9wasmsign25split5testss_23test_split_all_sections
FN:282,_RNvNtNtCsaosaS6TPQTE_9wasmsign25split5testss_28test_detach_attach_roundtrip
FN:228,_RNvNtNtCsaosaS6TPQTE_9wasmsign25split5testss_34test_split_with_existing_signature
FN:128,_RNvNtNtCsaosaS6TPQTE_9wasmsign25split5testss_35test_detach_signature_no_signatures
FN:174,_RNvNtNtCsaosaS6TPQTE_9wasmsign25split5testss_36test_attach_signature_already_signed
FN:136,_RNvNtNtCsaosaS6TPQTE_9wasmsign25split5testss_36test_detach_signature_with_signature
FN:23,_RINvMNtCsaosaS6TPQTE_9wasmsign25splitNtNtB5_11wasm_module6Module5splitNCNvNtB3_5testss_20test_split_selective0EB5_
FN:23,_RINvMNtCsaosaS6TPQTE_9wasmsign25splitNtNtB5_11wasm_module6Module5splitNCNvNtB3_5testss_22test_split_no_sections0EB5_
FN:23,_RINvMNtCsaosaS6TPQTE_9wasmsign25splitNtNtB5_11wasm_module6Module5splitNCNvNtB3_5testss_23test_split_all_sections0EB5_
FN:23,_RINvMNtCsaosaS6TPQTE_9wasmsign25splitNtNtB5_11wasm_module6Module5splitNCNvNtB3_5testss_34test_split_with_existing_signature0EB5_
FNDA:3,_RNvMNtCsaosaS6TPQTE_9wasmsign25splitNtNtB4_11wasm_module6Module16attach_signature
FNDA:3,_RNvMNtCsaosaS6TPQTE_9wasmsign25splitNtNtB4_11wasm_module6Module16detach_signature
FNDA:2,_RNvMNtCsaosaS6TPQTE_9wasmsign25splitNtNtB4_11wasm_module6Module4show
FNDA:3,_RNCNvNtNtCsaosaS6TPQTE_9wasmsign25split5testss_20test_split_selective0B7_
FNDA:2,_RNCNvNtNtCsaosaS6TPQTE_9wasmsign25split5testss_20test_split_selectives_0B7_
FNDA:8,_RNvNtNtCsaosaS6TPQTE_9wasmsign25split5tests18create_test_module
FNDA:1,_RNvNtNtCsaosaS6TPQTE_9wasmsign25split5testss_17test_show_verbose
FNDA:1,_RNvNtNtCsaosaS6TPQTE_9wasmsign25split5testss_20test_split_selective
FNDA:1,_RNvNtNtCsaosaS6TPQTE_9wasmsign25split5testss_21test_attach_signature
FNDA:1,_RNvNtNtCsaosaS6TPQTE_9wasmsign25split5testss_21test_show_non_verbose
FNDA:1,_RNvNtNtCsaosaS6TPQTE_9wasmsign25split5testss_22test_split_no_sections
FNDA:1,_RNvNtNtCsaosaS6TPQTE_9wasmsign25split5testss_23test_split_all_sections
FNDA:1,_RNvNtNtCsaosaS6TPQTE_9wasmsign25split5testss_28test_detach_attach_roundtrip
FNDA:1,_RNvNtNtCsaosaS6TPQTE_9wasmsign25split5testss_34test_split_with_existing_signature
FNDA:1,_RNvNtNtCsaosaS6TPQTE_9wasmsign25split5testss_35test_detach_signature_no_signatures
FNDA:1,_RNvNtNtCsaosaS6TPQTE_9wasmsign25split5testss_36test_attach_signature_already_signed
FNDA:1,_RNvNtNtCsaosaS6TPQTE_9wasmsign25split5testss_36test_detach_signature_with_signature
FNDA:1,_RINvMNtCsaosaS6TPQTE_9wasmsign25splitNtNtB5_11wasm_module6Module5splitNCNvNtB3_5testss_20test_split_selective0EB5_
FNDA:1,_RINvMNtCsaosaS6TPQTE_9wasmsign25splitNtNtB5_11wasm_module6Module5splitNCNvNtB3_5testss_22test_split_no_sections0EB5_
FNDA:1,_RINvMNtCsaosaS6TPQTE_9wasmsign25splitNtNtB5_11wasm_module6Module5splitNCNvNtB3_5testss_23test_split_all_sections0EB5_
FNDA:1,_RINvMNtCsaosaS6TPQTE_9wasmsign25splitNtNtB5_11wasm_module6Module5splitNCNvNtB3_5testss_34test_split_with_existing_signature0EB5_
FNF:18
FNH:18
DA:10,2
DA:11,6
DA:12,6
DA:13,6
DA:14,2
DA:15,2
DA:23,4
DA:24,4
DA:25,4
DA:27,4
DA:28,4
DA:29,4
DA:30,11
DA:31,11
DA:32,1
DA:33,1
DA:34,1
DA:35,10
DA:36,10
DA:37,0
DA:38,0
DA:39,0
DA:40,10
DA:41,10
DA:42,10
DA:43,3
DA:44,7
DA:45,1
DA:46,1
DA:47,1
DA:48,0
DA:49,1
DA:50,6
DA:51,10
DA:52,10
DA:54,4
DA:55,4
DA:57,4
DA:58,4
DA:59,0
DA:60,4
DA:61,4
DA:62,4
DA:63,4
DA:64,4
DA:70,3
DA:71,3
DA:72,3
DA:73,3
DA:74,0
DA:75,3
DA:76,3
DA:77,1
DA:78,2
DA:79,2
DA:82,7
DA:83,5
DA:84,5
DA:85,2
DA:86,2
DA:87,2
DA:88,3
DA:92,3
DA:93,3
DA:94,3
DA:95,3
DA:96,3
DA:97,3
DA:98,3
DA:99,3
DA:100,9
DA:101,7
DA:102,1
DA:103,6
DA:104,6
DA:106,2
DA:107,2
DA:108,2
DA:109,3
DA:116,8
DA:117,8
DA:118,8
DA:119,8
DA:120,8
DA:121,8
DA:122,8
DA:123,8
DA:124,8
DA:125,8
DA:128,1
DA:129,1
DA:130,1
DA:131,1
DA:132,1
DA:133,1
DA:136,1
DA:137,1
DA:138,1
DA:139,1
DA:140,1
DA:141,1
DA:142,1
DA:143,1
DA:144,1
DA:145,1
DA:146,1
DA:147,1
DA:148,1
DA:150,1
DA:151,1
DA:152,1
DA:153,1
DA:154,1
DA:155,1
DA:156,1
DA:159,1
DA:160,1
DA:161,1
DA:163,1
DA:164,1
DA:165,1
DA:168,1
DA:169,1
DA:170,1
DA:171,1
DA:174,1
DA:175,1
DA:176,1
DA:177,1
DA:178,1
DA:179,1
DA:180,1
DA:181,1
DA:182,1
DA:183,1
DA:184,1
DA:185,1
DA:187,1
DA:188,1
DA:189,1
DA:190,1
DA:191,1
DA:194,1
DA:197,1
DA:198,1
DA:201,1
DA:202,1
DA:203,1
DA:206,1
DA:207,1
DA:208,1
DA:209,1
DA:210,1
DA:211,1
DA:212,1
DA:215,1
DA:216,1
DA:219,1
DA:220,1
DA:221,1
DA:224,1
DA:225,1
DA:228,1
DA:229,1
DA:230,1
DA:231,1
DA:232,1
DA:233,1
DA:234,1
DA:235,1
DA:236,1
DA:237,1
DA:238,1
DA:240,1
DA:241,1
DA:242,1
DA:245,1
DA:246,1
DA:249,1
DA:250,1
DA:253,3
DA:254,1
DA:255,1
DA:258,1
DA:259,1
DA:260,1
DA:261,2
DA:262,1
DA:263,1
DA:266,1
DA:267,1
DA:269,1
DA:270,1
DA:271,1
DA:274,1
DA:275,1
DA:277,1
DA:278,1
DA:279,1
DA:282,1
DA:283,1
DA:284,1
DA:287,1
DA:290,1
DA:293,1
DA:296,1
DA:297,1
BRF:0
BRH:0
LF:209
LH:200
end_of_record
SF:/Users/r/git/wasmsign2/src/lib/src/wasm_module/mod.rs
FN:111,_RNvMs1_NtCsaosaS6TPQTE_9wasmsign211wasm_moduleNtB5_15StandardSection3new
FN:154,_RNvMs3_NtCsaosaS6TPQTE_9wasmsign211wasm_moduleNtB5_13CustomSection13outer_payload
FN:142,_RNvMs3_NtCsaosaS6TPQTE_9wasmsign211wasm_moduleNtB5_13CustomSection3new
FN:147,_RNvMs3_NtCsaosaS6TPQTE_9wasmsign211wasm_moduleNtB5_13CustomSection4name
FN:318,_RNvMs6_NtCsaosaS6TPQTE_9wasmsign211wasm_moduleNtB5_7Section19is_signature_header
FN:326,_RNvMs6_NtCsaosaS6TPQTE_9wasmsign211wasm_moduleNtB5_7Section22is_signature_delimiter
FN:270,_RNvMs6_NtCsaosaS6TPQTE_9wasmsign211wasm_moduleNtB5_7Section3new
FN:336,_RNvMs7_NtCsaosaS6TPQTE_9wasmsign211wasm_moduleNtB5_13CustomSection19is_signature_header
FN:341,_RNvMs7_NtCsaosaS6TPQTE_9wasmsign211wasm_moduleNtB5_13CustomSection22is_signature_delimiter
FN:36,_RNvXNtCsaosaS6TPQTE_9wasmsign211wasm_moduleNtB2_9SectionIdINtNtCs2CqrNpCrSUr_4core7convert4FromhE4from
FN:76,_RNvXs0_NtCsaosaS6TPQTE_9wasmsign211wasm_moduleNtB5_9SectionIdNtNtCs2CqrNpCrSUr_4core3fmt7Display3fmt
FN:118,_RNvXs2_NtCsaosaS6TPQTE_9wasmsign211wasm_moduleNtB5_15StandardSectionNtB5_11SectionLike2id
FN:128,_RNvXs2_NtCsaosaS6TPQTE_9wasmsign211wasm_moduleNtB5_15StandardSectionNtB5_11SectionLike7display
FN:123,_RNvXs2_NtCsaosaS6TPQTE_9wasmsign211wasm_moduleNtB5_15StandardSectionNtB5_11SectionLike7payload
FN:164,_RNvXs4_NtCsaosaS6TPQTE_9wasmsign211wasm_moduleNtB5_13CustomSectionNtB5_11SectionLike2id
FN:172,_RNvXs4_NtCsaosaS6TPQTE_9wasmsign211wasm_moduleNtB5_13CustomSectionNtB5_11SectionLike7display
FN:168,_RNvXs4_NtCsaosaS6TPQTE_9wasmsign211wasm_moduleNtB5_13CustomSectionNtB5_11SectionLike7payload
FN:246,_RNvXs5_NtCsaosaS6TPQTE_9wasmsign211wasm_moduleNtB5_7SectionNtB5_11SectionLike2id
FN:260,_RNvXs5_NtCsaosaS6TPQTE_9wasmsign211wasm_moduleNtB5_7SectionNtB5_11SectionLike7display
FN:253,_RNvXs5_NtCsaosaS6TPQTE_9wasmsign211wasm_moduleNtB5_7SectionNtB5_11SectionLike7payload
FN:355,_RNvXs8_NtCsaosaS6TPQTE_9wasmsign211wasm_moduleNtB5_7SectionNtNtCs2CqrNpCrSUr_4core3fmt7Display3fmt
FN:361,_RNvXs9_NtCsaosaS6TPQTE_9wasmsign211wasm_moduleNtB5_7SectionNtNtCs2CqrNpCrSUr_4core3fmt5Debug3fmt
FN:56,_RNvXs_NtCsaosaS6TPQTE_9wasmsign211wasm_modulehINtNtCs2CqrNpCrSUr_4core7convert4FromNtB4_9SectionIdE4from
FN:402,_RINvMsa_NtCsaosaS6TPQTE_9wasmsign211wasm_moduleNtB6_6Module17serialize_to_filepEB8_
FN:387,_RINvMsa_NtCsaosaS6TPQTE_9wasmsign211wasm_moduleNtB6_6Module21deserialize_from_filepEB8_
FN:347,_RNvMs7_NtCsaosaS6TPQTE_9wasmsign211wasm_moduleNtB5_13CustomSection14signature_data
FN:288,_RINvMs6_NtCsaosaS6TPQTE_9wasmsign211wasm_moduleNtB6_7Section11deserializeINtNtNtCs4N3M0UGf3SB_3std2io6cursor6CursorINtNtCs1AhsD0INetT_5alloc3vec3VechEEEB8_
FN:302,_RINvMs6_NtCsaosaS6TPQTE_9wasmsign211wasm_moduleNtB6_7Section9serializeINtNtCs1AhsD0INetT_5alloc3vec3VechEEB8_
FN:375,_RINvMsa_NtCsaosaS6TPQTE_9wasmsign211wasm_moduleNtB6_6Module11deserializeINtNtNtCs4N3M0UGf3SB_3std2io6cursor6CursorINtNtCs1AhsD0INetT_5alloc3vec3VechEEEB8_
FN:408,_RINvMsa_NtCsaosaS6TPQTE_9wasmsign211wasm_moduleNtB6_6Module16init_from_readerINtNtNtCs4N3M0UGf3SB_3std2io6cursor6CursorINtNtCs1AhsD0INetT_5alloc3vec3VechEEEB8_
FN:420,_RINvMsa_NtCsaosaS6TPQTE_9wasmsign211wasm_moduleNtB6_6Module7iterateINtNtNtCs4N3M0UGf3SB_3std2io6cursor6CursorINtNtCs1AhsD0INetT_5alloc3vec3VechEEEB8_
FN:393,_RINvMsa_NtCsaosaS6TPQTE_9wasmsign211wasm_moduleNtB6_6Module9serializeINtNtCs1AhsD0INetT_5alloc3vec3VechEEB8_
FN:442,_RNvXsb_NtCsaosaS6TPQTE_9wasmsign211wasm_moduleINtB5_16SectionsIteratorINtNtNtCs4N3M0UGf3SB_3std2io6cursor6CursorINtNtCs1AhsD0INetT_5alloc3vec3VechEEENtNtNtNtCs2CqrNpCrSUr_4core4iter6traits8iterator8Iterator4nextB7_
FN:610,_RNvNtNtCsaosaS6TPQTE_9wasmsign211wasm_module5testss_19test_module_default
FN:473,_RNvNtNtCsaosaS6TPQTE_9wasmsign211wasm_module5testss_21test_section_id_to_u8
FN:522,_RNvNtNtCsaosaS6TPQTE_9wasmsign211wasm_module5testss_23test_custom_section_new
FN:490,_RNvNtNtCsaosaS6TPQTE_9wasmsign211wasm_module5testss_23test_section_id_display
FN:456,_RNvNtNtCsaosaS6TPQTE_9wasmsign211wasm_module5testss_23test_section_id_from_u8
FN:507,_RNvNtNtCsaosaS6TPQTE_9wasmsign211wasm_module5testss_25test_standard_section_new
FN:532,_RNvNtNtCsaosaS6TPQTE_9wasmsign211wasm_module5testss_27test_custom_section_display
FN:559,_RNvNtNtCsaosaS6TPQTE_9wasmsign211wasm_module5testss_27test_section_custom_wrapper
FN:668,_RNvNtNtCsaosaS6TPQTE_9wasmsign211wasm_module5testss_28test_section_display_formats
FN:549,_RNvNtNtCsaosaS6TPQTE_9wasmsign211wasm_module5testss_29test_section_standard_wrapper
FN:515,_RNvNtNtCsaosaS6TPQTE_9wasmsign211wasm_module5testss_29test_standard_section_display
FN:648,_RNvNtNtCsaosaS6TPQTE_9wasmsign211wasm_module5testss_31test_module_serialize_roundtrip
FN:538,_RNvNtNtCsaosaS6TPQTE_9wasmsign211wasm_module5testss_33test_custom_section_outer_payload
FN:589,_RNvNtNtCsaosaS6TPQTE_9wasmsign211wasm_module5testss_33test_section_is_signature_methods
FN:626,_RNvNtNtCsaosaS6TPQTE_9wasmsign211wasm_module5testss_35test_module_deserialize_wasm_header
FN:617,_RNvNtNtCsaosaS6TPQTE_9wasmsign211wasm_module5testss_38test_module_deserialize_invalid_header
FN:569,_RNvNtNtCsaosaS6TPQTE_9wasmsign211wasm_module5testss_39test_custom_section_is_signature_header
FN:637,_RNvNtNtCsaosaS6TPQTE_9wasmsign211wasm_module5testss_40test_module_deserialize_component_header
FN:579,_RNvNtNtCsaosaS6TPQTE_9wasmsign211wasm_module5testss_42test_custom_section_is_signature_delimiter
FNDA:33,_RNvMs1_NtCsaosaS6TPQTE_9wasmsign211wasm_moduleNtB5_15StandardSection3new
FNDA:1,_RNvMs3_NtCsaosaS6TPQTE_9wasmsign211wasm_moduleNtB5_13CustomSection13outer_payload
FNDA:21,_RNvMs3_NtCsaosaS6TPQTE_9wasmsign211wasm_moduleNtB5_13CustomSection3new
FNDA:21,_RNvMs3_NtCsaosaS6TPQTE_9wasmsign211wasm_moduleNtB5_13CustomSection4name
FNDA:27,_RNvMs6_NtCsaosaS6TPQTE_9wasmsign211wasm_moduleNtB5_7Section19is_signature_header
FNDA:20,_RNvMs6_NtCsaosaS6TPQTE_9wasmsign211wasm_moduleNtB5_7Section22is_signature_delimiter
FNDA:0,_RNvMs6_NtCsaosaS6TPQTE_9wasmsign211wasm_moduleNtB5_7Section3new
FNDA:11,_RNvMs7_NtCsaosaS6TPQTE_9wasmsign211wasm_moduleNtB5_13CustomSection19is_signature_header
FNDA:7,_RNvMs7_NtCsaosaS6TPQTE_9wasmsign211wasm_moduleNtB5_13CustomSection22is_signature_delimiter
FNDA:13,_RNvXNtCsaosaS6TPQTE_9wasmsign211wasm_moduleNtB2_9SectionIdINtNtCs2CqrNpCrSUr_4core7convert4FromhE4from
FNDA:24,_RNvXs0_NtCsaosaS6TPQTE_9wasmsign211wasm_moduleNtB5_9SectionIdNtNtCs2CqrNpCrSUr_4core3fmt7Display3fmt
FNDA:16,_RNvXs2_NtCsaosaS6TPQTE_9wasmsign211wasm_moduleNtB5_15StandardSectionNtB5_11SectionLike2id
FNDA:11,_RNvXs2_NtCsaosaS6TPQTE_9wasmsign211wasm_moduleNtB5_15StandardSectionNtB5_11SectionLike7display
FNDA:2,_RNvXs2_NtCsaosaS6TPQTE_9wasmsign211wasm_moduleNtB5_15StandardSectionNtB5_11SectionLike7payload
FNDA:2,_RNvXs4_NtCsaosaS6TPQTE_9wasmsign211wasm_moduleNtB5_13CustomSectionNtB5_11SectionLike2id
FNDA:2,_RNvXs4_NtCsaosaS6TPQTE_9wasmsign211wasm_moduleNtB5_13CustomSectionNtB5_11SectionLike7display
FNDA:5,_RNvXs4_NtCsaosaS6TPQTE_9wasmsign211wasm_moduleNtB5_13CustomSectionNtB5_11SectionLike7payload
FNDA:5,_RNvXs5_NtCsaosaS6TPQTE_9wasmsign211wasm_moduleNtB5_7SectionNtB5_11SectionLike2id
FNDA:10,_RNvXs5_NtCsaosaS6TPQTE_9wasmsign211wasm_moduleNtB5_7SectionNtB5_11SectionLike7display
FNDA:5,_RNvXs5_NtCsaosaS6TPQTE_9wasmsign211wasm_moduleNtB5_7SectionNtB5_11SectionLike7payload
FNDA:1,_RNvXs8_NtCsaosaS6TPQTE_9wasmsign211wasm_moduleNtB5_7SectionNtNtCs2CqrNpCrSUr_4core3fmt7Display3fmt
FNDA:1,_RNvXs9_NtCsaosaS6TPQTE_9wasmsign211wasm_moduleNtB5_7SectionNtNtCs2CqrNpCrSUr_4core3fmt5Debug3fmt
FNDA:13,_RNvXs_NtCsaosaS6TPQTE_9wasmsign211wasm_modulehINtNtCs2CqrNpCrSUr_4core7convert4FromNtB4_9SectionIdE4from
FNDA:0,_RINvMsa_NtCsaosaS6TPQTE_9wasmsign211wasm_moduleNtB6_6Module17serialize_to_filepEB8_
FNDA:0,_RINvMsa_NtCsaosaS6TPQTE_9wasmsign211wasm_moduleNtB6_6Module21deserialize_from_filepEB8_
FNDA:0,_RNvMs7_NtCsaosaS6TPQTE_9wasmsign211wasm_moduleNtB5_13CustomSection14signature_data
FNDA:3,_RINvMs6_NtCsaosaS6TPQTE_9wasmsign211wasm_moduleNtB6_7Section11deserializeINtNtNtCs4N3M0UGf3SB_3std2io6cursor6CursorINtNtCs1AhsD0INetT_5alloc3vec3VechEEEB8_
FNDA:0,_RINvMs6_NtCsaosaS6TPQTE_9wasmsign211wasm_moduleNtB6_7Section9serializeINtNtCs1AhsD0INetT_5alloc3vec3VechEEB8_
FNDA:4,_RINvMsa_NtCsaosaS6TPQTE_9wasmsign211wasm_moduleNtB6_6Module11deserializeINtNtNtCs4N3M0UGf3SB_3std2io6cursor6CursorINtNtCs1AhsD0INetT_5alloc3vec3VechEEEB8_
FNDA:4,_RINvMsa_NtCsaosaS6TPQTE_9wasmsign211wasm_moduleNtB6_6Module16init_from_readerINtNtNtCs4N3M0UGf3SB_3std2io6cursor6CursorINtNtCs1AhsD0INetT_5alloc3vec3VechEEEB8_
FNDA:3,_RINvMsa_NtCsaosaS6TPQTE_9wasmsign211wasm_moduleNtB6_6Module7iterateINtNtNtCs4N3M0UGf3SB_3std2io6cursor6CursorINtNtCs1AhsD0INetT_5alloc3vec3VechEEEB8_
FNDA:1,_RINvMsa_NtCsaosaS6TPQTE_9wasmsign211wasm_moduleNtB6_6Module9serializeINtNtCs1AhsD0INetT_5alloc3vec3VechEEB8_
FNDA:3,_RNvXsb_NtCsaosaS6TPQTE_9wasmsign211wasm_moduleINtB5_16SectionsIteratorINtNtNtCs4N3M0UGf3SB_3std2io6cursor6CursorINtNtCs1AhsD0INetT_5alloc3vec3VechEEENtNtNtNtCs2CqrNpCrSUr_4core4iter6traits8iterator8Iterator4nextB7_
FNDA:1,_RNvNtNtCsaosaS6TPQTE_9wasmsign211wasm_module5testss_19test_module_default
FNDA:1,_RNvNtNtCsaosaS6TPQTE_9wasmsign211wasm_module5testss_21test_section_id_to_u8
FNDA:1,_RNvNtNtCsaosaS6TPQTE_9wasmsign211wasm_module5testss_23test_custom_section_new
FNDA:1,_RNvNtNtCsaosaS6TPQTE_9wasmsign211wasm_module5testss_23test_section_id_display
FNDA:1,_RNvNtNtCsaosaS6TPQTE_9wasmsign211wasm_module5testss_23test_section_id_from_u8
FNDA:1,_RNvNtNtCsaosaS6TPQTE_9wasmsign211wasm_module5testss_25test_standard_section_new
FNDA:1,_RNvNtNtCsaosaS6TPQTE_9wasmsign211wasm_module5testss_27test_custom_section_display
FNDA:1,_RNvNtNtCsaosaS6TPQTE_9wasmsign211wasm_module5testss_27test_section_custom_wrapper
FNDA:1,_RNvNtNtCsaosaS6TPQTE_9wasmsign211wasm_module5testss_28test_section_display_formats
FNDA:1,_RNvNtNtCsaosaS6TPQTE_9wasmsign211wasm_module5testss_29test_section_standard_wrapper
FNDA:1,_RNvNtNtCsaosaS6TPQTE_9wasmsign211wasm_module5testss_29test_standard_section_display
FNDA:1,_RNvNtNtCsaosaS6TPQTE_9wasmsign211wasm_module5testss_31test_module_serialize_roundtrip
FNDA:1,_RNvNtNtCsaosaS6TPQTE_9wasmsign211wasm_module5testss_33test_custom_section_outer_payload
FNDA:1,_RNvNtNtCsaosaS6TPQTE_9wasmsign211wasm_module5testss_33test_section_is_signature_methods
FNDA:1,_RNvNtNtCsaosaS6TPQTE_9wasmsign211wasm_module5testss_35test_module_deserialize_wasm_header
FNDA:1,_RNvNtNtCsaosaS6TPQTE_9wasmsign211wasm_module5testss_38test_module_deserialize_invalid_header
FNDA:1,_RNvNtNtCsaosaS6TPQTE_9wasmsign211wasm_module5testss_39test_custom_section_is_signature_header
FNDA:1,_RNvNtNtCsaosaS6TPQTE_9wasmsign211wasm_module5testss_40test_module_deserialize_component_header
FNDA:1,_RNvNtNtCsaosaS6TPQTE_9wasmsign211wasm_module5testss_42test_custom_section_is_signature_delimiter
FNF:52
FNH:47
DA:36,13
DA:37,13
DA:38,1
DA:39,1
DA:40,1
DA:41,1
DA:42,1
DA:43,1
DA:44,1
DA:45,1
DA:46,1
DA:47,1
DA:48,1
DA:49,1
DA:50,1
DA:52,13
DA:56,13
DA:57,13
DA:58,1
DA:59,1
DA:60,1
DA:61,1
DA:62,1
DA:63,1
DA:64,1
DA:65,1
DA:66,1
DA:67,1
DA:68,1
DA:69,1
DA:70,1
DA:72,13
DA:76,24
DA:77,24
DA:78,1
DA:79,3
DA:80,1
DA:81,3
DA:82,1
DA:83,2
DA:84,1
DA:85,3
DA:86,1
DA:87,1
DA:88,5
DA:89,1
DA:90,1
DA:92,24
DA:111,33
DA:112,33
DA:113,33
DA:118,16
DA:119,16
DA:120,16
DA:123,2
DA:124,2
DA:125,2
DA:128,11
DA:129,11
DA:130,11
DA:142,21
DA:143,21
DA:144,21
DA:147,21
DA:148,21
DA:149,21
DA:154,1
DA:155,1
DA:156,1
DA:157,1
DA:158,1
DA:159,1
DA:160,1
DA:164,2
DA:165,2
DA:166,2
DA:168,5
DA:169,5
DA:170,5
DA:172,2
DA:173,2
DA:174,2
DA:175,0
DA:177,0
DA:178,0
DA:179,0
DA:181,0
DA:183,0
DA:184,0
DA:185,0
DA:186,0
DA:188,0
DA:189,0
DA:190,0
DA:191,0
DA:194,0
DA:195,0
DA:196,0
DA:197,0
DA:198,0
DA:201,0
DA:202,0
DA:203,0
DA:204,0
DA:205,0
DA:206,0
DA:207,0
DA:208,0
DA:209,0
DA:210,0
DA:211,0
DA:212,0
DA:213,0
DA:215,0
DA:216,0
DA:217,0
DA:218,0
DA:219,0
DA:220,0
DA:221,0
DA:223,0
DA:227,0
DA:229,0
DA:231,2
DA:246,5
DA:247,5
DA:248,4
DA:249,1
DA:251,5
DA:253,5
DA:254,5
DA:255,1
DA:256,4
DA:258,5
DA:260,10
DA:261,10
DA:262,9
DA:263,1
DA:265,10
DA:270,0
DA:271,0
DA:273,0
DA:274,0
DA:275,0
DA:276,0
DA:277,0
DA:278,0
DA:279,0
DA:280,0
DA:281,0
DA:283,0
DA:285,0
DA:288,3
DA:289,3
DA:290,0
DA:291,3
DA:292,0
DA:294,0
DA:295,0
DA:296,0
DA:297,0
DA:298,0
DA:299,3
DA:302,0
DA:304,0
DA:305,0
DA:306,0
DA:307,0
DA:308,0
DA:311,0
DA:312,0
DA:313,0
DA:314,0
DA:315,0
DA:318,27
DA:319,27
DA:320,19
DA:321,8
DA:323,27
DA:326,20
DA:327,20
DA:328,16
DA:329,4
DA:331,20
DA:336,11
DA:337,11
DA:338,11
DA:341,7
DA:342,7
DA:343,7
DA:347,0
DA:348,0
DA:349,0
DA:350,0
DA:351,0
DA:355,1
DA:356,1
DA:357,1
DA:361,1
DA:362,1
DA:363,1
DA:375,4
DA:376,4
DA:377,3
DA:378,3
DA:379,3
DA:380,3
DA:381,0
DA:383,3
DA:384,4
DA:387,0
DA:388,0
DA:389,0
DA:390,0
DA:393,1
DA:394,1
DA:395,1
DA:396,0
DA:398,1
DA:399,1
DA:402,0
DA:403,0
DA:404,0
DA:405,0
DA:408,4
DA:409,4
DA:410,4
DA:411,4
DA:412,1
DA:413,3
DA:414,3
DA:415,4
DA:420,3
DA:421,3
DA:422,3
DA:423,3
DA:424,3
DA:425,3
DA:426,3
DA:442,3
DA:443,3
DA:444,0
DA:445,3
DA:446,0
DA:448,3
DA:456,1
DA:457,1
DA:458,1
DA:459,1
DA:460,1
DA:461,1
DA:462,1
DA:463,1
DA:464,1
DA:465,1
DA:466,1
DA:467,1
DA:468,1
DA:469,1
DA:470,1
DA:473,1
DA:474,1
DA:475,1
DA:476,1
DA:477,1
DA:478,1
DA:479,1
DA:480,1
DA:481,1
DA:482,1
DA:483,1
DA:484,1
DA:485,1
DA:486,1
DA:487,1
DA:490,1
DA:491,1
DA:492,1
DA:493,1
DA:494,1
DA:495,1
DA:496,1
DA:497,1
DA:498,1
DA:499,1
DA:500,1
DA:501,1
DA:502,1
DA:503,1
DA:504,1
DA:507,1
DA:508,1
DA:509,1
DA:510,1
DA:511,1
DA:512,1
DA:515,1
DA:516,1
DA:517,1
DA:518,1
DA:519,1
DA:522,1
DA:523,1
DA:524,1
DA:525,1
DA:526,1
DA:527,1
DA:528,1
DA:529,1
DA:532,1
DA:533,1
DA:534,1
DA:535,1
DA:538,1
DA:539,1
DA:540,1
DA:541,1
DA:543,1
DA:545,1
DA:546,1
DA:549,1
DA:550,1
DA:551,1
DA:553,1
DA:554,1
DA:555,1
DA:556,1
DA:559,1
DA:560,1
DA:561,1
DA:563,1
DA:564,1
DA:565,1
DA:566,1
DA:569,1
DA:570,1
DA:571,1
DA:572,1
DA:574,1
DA:575,1
DA:576,1
DA:579,1
DA:580,1
DA:581,1
DA:582,1
DA:584,1
DA:585,1
DA:586,1
DA:589,1
DA:590,1
DA:591,1
DA:592,1
DA:593,1
DA:594,1
DA:595,1
DA:597,1
DA:598,1
DA:599,1
DA:600,1
DA:601,1
DA:602,1
DA:604,1
DA:605,1
DA:606,1
DA:607,1
DA:610,1
DA:611,1
DA:612,1
DA:613,1
DA:614,1
DA:617,1
DA:618,1
DA:619,1
DA:620,1
DA:621,1
DA:622,1
DA:623,1
DA:626,1
DA:627,1
DA:629,1
DA:630,1
DA:631,1
DA:632,1
DA:633,1
DA:634,1
DA:637,1
DA:638,1
DA:640,1
DA:641,1
DA:642,1
DA:643,1
DA:644,1
DA:645,1
DA:648,1
DA:650,1
DA:651,1
DA:652,1
DA:653,1
DA:656,1
DA:657,1
DA:660,1
DA:661,1
DA:663,1
DA:664,1
DA:665,1
DA:668,1
DA:669,1
DA:670,1
DA:671,1
DA:673,1
DA:674,1
DA:675,1
BRF:0
BRH:0
LF:412
LH:323
end_of_record
SF:/Users/r/git/wasmsign2/src/lib/src/wasm_module/varint.rs
FN:37,_RINvNtNtCsaosaS6TPQTE_9wasmsign211wasm_module6varint3putINtNtCs1AhsD0INetT_5alloc3vec3VechEEB6_
FN:37,_RINvNtNtCsaosaS6TPQTE_9wasmsign211wasm_module6varint3putINtNtNtCs4N3M0UGf3SB_3std2io6cursor6CursorINtNtCs1AhsD0INetT_5alloc3vec3VechEEEB6_
FN:5,_RINvNtNtCsaosaS6TPQTE_9wasmsign211wasm_module6varint4get7INtNtNtCs4N3M0UGf3SB_3std2io6cursor6CursorINtNtCs1AhsD0INetT_5alloc3vec3VechEEEB6_
FN:5,_RINvNtNtCsaosaS6TPQTE_9wasmsign211wasm_module6varint4get7INtNtNtNtCs4N3M0UGf3SB_3std2io8buffered9bufreader9BufReaderRShEEB6_
FN:24,_RINvNtNtCsaosaS6TPQTE_9wasmsign211wasm_module6varint5get32INtNtNtCs4N3M0UGf3SB_3std2io6cursor6CursorINtNtCs1AhsD0INetT_5alloc3vec3VechEEEB6_
FN:24,_RINvNtNtCsaosaS6TPQTE_9wasmsign211wasm_module6varint5get32INtNtNtNtCs4N3M0UGf3SB_3std2io8buffered9bufreader9BufReaderRShEEB6_
FN:59,_RINvNtNtCsaosaS6TPQTE_9wasmsign211wasm_module6varint9get_sliceINtNtNtNtCs4N3M0UGf3SB_3std2io8buffered9bufreader9BufReaderRShEEB6_
FN:52,_RINvNtNtCsaosaS6TPQTE_9wasmsign211wasm_module6varint9put_sliceppEB6_
FNDA:0,_RINvNtNtCsaosaS6TPQTE_9wasmsign211wasm_module6varint3putINtNtCs1AhsD0INetT_5alloc3vec3VechEEB6_
FNDA:1,_RINvNtNtCsaosaS6TPQTE_9wasmsign211wasm_module6varint3putINtNtNtCs4N3M0UGf3SB_3std2io6cursor6CursorINtNtCs1AhsD0INetT_5alloc3vec3VechEEEB6_
FNDA:3,_RINvNtNtCsaosaS6TPQTE_9wasmsign211wasm_module6varint4get7INtNtNtCs4N3M0UGf3SB_3std2io6cursor6CursorINtNtCs1AhsD0INetT_5alloc3vec3VechEEEB6_
FNDA:0,_RINvNtNtCsaosaS6TPQTE_9wasmsign211wasm_module6varint4get7INtNtNtNtCs4N3M0UGf3SB_3std2io8buffered9bufreader9BufReaderRShEEB6_
FNDA:0,_RINvNtNtCsaosaS6TPQTE_9wasmsign211wasm_module6varint5get32INtNtNtCs4N3M0UGf3SB_3std2io6cursor6CursorINtNtCs1AhsD0INetT_5alloc3vec3VechEEEB6_
FNDA:0,_RINvNtNtCsaosaS6TPQTE_9wasmsign211wasm_module6varint5get32INtNtNtNtCs4N3M0UGf3SB_3std2io8buffered9bufreader9BufReaderRShEEB6_
FNDA:0,_RINvNtNtCsaosaS6TPQTE_9wasmsign211wasm_module6varint9get_sliceINtNtNtNtCs4N3M0UGf3SB_3std2io8buffered9bufreader9BufReaderRShEEB6_
FNDA:0,_RINvNtNtCsaosaS6TPQTE_9wasmsign211wasm_module6varint9put_sliceppEB6_
FNF:5
FNH:2
DA:5,3
DA:6,3
DA:7,3
DA:8,3
DA:9,3
DA:10,3
DA:11,3
DA:13,0
DA:15,0
DA:16,0
DA:17,0
DA:18,0
DA:19,0
DA:21,0
DA:22,3
DA:24,0
DA:25,0
DA:26,0
DA:27,0
DA:28,0
DA:29,0
DA:30,0
DA:31,0
DA:32,0
DA:34,0
DA:35,0
DA:37,1
DA:38,1
DA:40,1
DA:41,1
DA:42,0
DA:43,1
DA:44,1
DA:45,1
DA:46,1
DA:47,1
DA:48,0
DA:50,1
DA:52,0
DA:53,0
DA:54,0
DA:55,0
DA:56,0
DA:57,0
DA:59,0
DA:60,0
DA:61,0
DA:62,0
DA:63,0
DA:64,0
BRF:0
BRH:0
LF:50
LH:18
end_of_record